(S"error: invalid command 'xmlparser'\r\n\r\n   or: crawl cmd --help\r\n   or: crawl --help-commands\r\n   or: crawl --help [cmd1 cmd2 ...]\r\nusage: crawl [global_opts] cmd1 [cmd1_opts] [cmd2 [cmd2_opts] ...]\r\n"
p0
tp1
.